target datalayout = "e-m:e-p270:32:32-p271:32:32-p272:64:64-i64:64-i128:128-f80:128-n8:16:32:64-S128"
target triple = "x86_64-pc-linux-gnu"

%"struct.std::array" = type { [2 x i64] }
%"class.arrow::GenericBasicDecimal" = type { %"struct.std::array" }
%"class.arrow::BasicDecimal128" = type { %"class.arrow::GenericBasicDecimal" }

; Function Attrs: mustprogress nounwind uwtable
define linkonce_odr noundef ptr @_ZNSt14__array_traitsImLm2EE6_S_ptrERA2_Km(ptr noundef nonnull align 8 dereferenceable(16) %0) #0 comdat align 2 {
  %2 = alloca ptr, align 8
  store ptr %0, ptr %2, align 8, !tbaa !239
  %3 = load ptr, ptr %2, align 8, !tbaa !239
  %4 = getelementptr inbounds [2 x i64], ptr %3, i64 0, i64 0
  ret ptr %4
}

; Function Attrs: mustprogress nounwind willreturn memory(none) uwtable
define linkonce_odr noundef ptr @_ZNSt5arrayImLm2EE4dataEv(ptr noundef nonnull align 8 dereferenceable(16) %0) #5 comdat align 2 {
  %2 = alloca ptr, align 8
  store ptr %0, ptr %2, align 8, !tbaa !10
  %3 = load ptr, ptr %2, align 8
  %4 = getelementptr inbounds nuw %"struct.std::array", ptr %3, i32 0, i32 0
  %5 = call noundef ptr @_ZNSt14__array_traitsImLm2EE6_S_ptrERA2_Km(ptr noundef nonnull align 8 dereferenceable(16) %4) #12
  ret ptr %5
}

; Function Attrs: mustprogress nounwind uwtable
define weak_odr void @_ZN5arrow19GenericBasicDecimalINS_15BasicDecimal128ELi128ELi2EEC2ERKSt5arrayImLm2EE(ptr noundef nonnull align 8 dereferenceable(16) %0, ptr noundef nonnull align 8 dereferenceable(16) %1) unnamed_addr #0 comdat($_ZN5arrow19GenericBasicDecimalINS_15BasicDecimal128ELi128ELi2EEC5ERKSt5arrayImLm2EE) align 2 {
  %3 = alloca ptr, align 8
  %4 = alloca ptr, align 8
  store ptr %0, ptr %3, align 8, !tbaa !3
  store ptr %1, ptr %4, align 8, !tbaa !10
  %5 = load ptr, ptr %3, align 8
  %6 = getelementptr inbounds nuw %"class.arrow::GenericBasicDecimal", ptr %5, i32 0, i32 0
  %7 = load ptr, ptr %4, align 8, !tbaa !10
  call void @llvm.memcpy.p0.p0.i64(ptr align 8 %6, ptr align 8 %7, i64 16, i1 false), !tbaa.struct !12
  ret void
}

; Function Attrs: mustprogress nounwind uwtable
define linkonce_odr noundef nonnull align 8 dereferenceable(8) ptr @_ZNSt5arrayImLm2EEixEm(ptr noundef nonnull align 8 dereferenceable(16) %0, i64 noundef %1) #0 comdat align 2 {
  %3 = alloca ptr, align 8
  %4 = alloca i64, align 8
  store ptr %0, ptr %3, align 8, !tbaa !10
  store i64 %1, ptr %4, align 8, !tbaa !8
  %5 = load ptr, ptr %3, align 8
  %6 = getelementptr inbounds nuw %"struct.std::array", ptr %5, i32 0, i32 0
  %7 = load i64, ptr %4, align 8, !tbaa !8
  %8 = call noundef nonnull align 8 dereferenceable(8) ptr @_ZNSt14__array_traitsImLm2EE6_S_refERA2_Kmm(ptr noundef nonnull align 8 dereferenceable(16) %6, i64 noundef %7) #12
  ret ptr %8
}

; Function Attrs: mustprogress nounwind willreturn memory(none) uwtable
define linkonce_odr noundef ptr @_ZNSt5arrayImLm2EE3endEv(ptr noundef nonnull align 8 dereferenceable(16) %0) #5 comdat align 2 {
  %2 = alloca ptr, align 8
  store ptr %0, ptr %2, align 8, !tbaa !10
  %3 = load ptr, ptr %2, align 8
  %4 = call noundef ptr @_ZNSt5arrayImLm2EE4dataEv(ptr noundef nonnull align 8 dereferenceable(16) %3) #14
  %5 = getelementptr inbounds nuw i64, ptr %4, i64 2
  ret ptr %5
}

; Function Attrs: mustprogress nounwind willreturn memory(none) uwtable
define linkonce_odr noundef ptr @_ZNSt5arrayImLm2EE5beginEv(ptr noundef nonnull align 8 dereferenceable(16) %0) #5 comdat align 2 {
  %2 = alloca ptr, align 8
  store ptr %0, ptr %2, align 8, !tbaa !10
  %3 = load ptr, ptr %2, align 8
  %4 = call noundef ptr @_ZNSt5arrayImLm2EE4dataEv(ptr noundef nonnull align 8 dereferenceable(16) %3) #14
  ret ptr %4
}

; Function Attrs: inlinehint mustprogress nounwind uwtable
define linkonce_odr void @_ZN5arrow15BasicDecimal128CI2NS_19GenericBasicDecimalIS0_Li128ELi2EEEERKSt5arrayImLm2EE(ptr noundef nonnull align 8 dereferenceable(16) %0, ptr noundef nonnull align 8 dereferenceable(16) %1) unnamed_addr #3 comdat align 2 {
  %3 = alloca ptr, align 8
  %4 = alloca ptr, align 8
  store ptr %0, ptr %3, align 8, !tbaa !154
  store ptr %1, ptr %4, align 8, !tbaa !10
  %5 = load ptr, ptr %3, align 8
  %6 = load ptr, ptr %4, align 8
  call void @_ZN5arrow19GenericBasicDecimalINS_15BasicDecimal128ELi128ELi2EEC2ERKSt5arrayImLm2EE(ptr noundef nonnull align 8 dereferenceable(16) %5, ptr noundef nonnull align 8 dereferenceable(16) %6) #12
  ret void
}

; Function Attrs: noinline noreturn nounwind uwtable
define linkonce_odr hidden void @__clang_call_terminate(ptr noundef %0) #4 comdat {
  %2 = call ptr @__cxa_begin_catch(ptr %0) #12
  call void @_ZSt9terminatev() #13
  unreachable
}

; Function Attrs: mustprogress nounwind uwtable
define linkonce_odr { i64, i64 } @_ZN5arrow19GenericBasicDecimalINS_15BasicDecimal128ELi128ELi2EE16WordsFromLowBitsIiEESt5arrayImLm2EET_(i32 noundef %0) #0 comdat align 2 {
  %2 = alloca %"struct.std::array", align 8
  %3 = alloca i32, align 4
  %4 = alloca ptr, align 8
  %5 = alloca ptr, align 8
  %6 = alloca ptr, align 8
  %7 = alloca ptr, align 8
  store i32 %0, ptr %3, align 4, !tbaa !30
  call void @llvm.memset.p0.i64(ptr align 8 %2, i8 0, i64 16, i1 false)
  %8 = load i32, ptr %3, align 4, !tbaa !30
  %9 = icmp slt i32 %8, 0
  br i1 %9, label %10, label %27

10:                                               ; preds = %1
  call void @llvm.lifetime.start.p0(i64 8, ptr %4) #12
  store ptr %2, ptr %4, align 8, !tbaa !10
  call void @llvm.lifetime.start.p0(i64 8, ptr %5) #12
  %11 = load ptr, ptr %4, align 8, !tbaa !10
  %12 = call noundef ptr @_ZNSt5arrayImLm2EE5beginEv(ptr noundef nonnull align 8 dereferenceable(16) %11) #14
  store ptr %12, ptr %5, align 8, !tbaa !239
  call void @llvm.lifetime.start.p0(i64 8, ptr %6) #12
  %13 = load ptr, ptr %4, align 8, !tbaa !10
  %14 = call noundef ptr @_ZNSt5arrayImLm2EE3endEv(ptr noundef nonnull align 8 dereferenceable(16) %13) #14
  store ptr %14, ptr %6, align 8, !tbaa !239
  br label %15

15:                                               ; preds = %23, %10
  %16 = load ptr, ptr %5, align 8, !tbaa !239
  %17 = load ptr, ptr %6, align 8, !tbaa !239
  %18 = icmp ne ptr %16, %17
  br i1 %18, label %20, label %19

19:                                               ; preds = %15
  call void @llvm.lifetime.end.p0(i64 8, ptr %6) #12
  call void @llvm.lifetime.end.p0(i64 8, ptr %5) #12
  call void @llvm.lifetime.end.p0(i64 8, ptr %4) #12
  br label %26

20:                                               ; preds = %15
  call void @llvm.lifetime.start.p0(i64 8, ptr %7) #12
  %21 = load ptr, ptr %5, align 8, !tbaa !239
  store ptr %21, ptr %7, align 8, !tbaa !239
  %22 = load ptr, ptr %7, align 8, !tbaa !239
  store i64 -1, ptr %22, align 8, !tbaa !8
  call void @llvm.lifetime.end.p0(i64 8, ptr %7) #12
  br label %23

23:                                               ; preds = %20
  %24 = load ptr, ptr %5, align 8, !tbaa !239
  %25 = getelementptr inbounds nuw i64, ptr %24, i32 1
  store ptr %25, ptr %5, align 8, !tbaa !239
  br label %15

26:                                               ; preds = %19
  br label %27

27:                                               ; preds = %26, %1
  %28 = load i32, ptr %3, align 4, !tbaa !30
  %29 = sext i32 %28 to i64
  %30 = call noundef nonnull align 8 dereferenceable(8) ptr @_ZNSt5arrayImLm2EEixEm(ptr noundef nonnull align 8 dereferenceable(16) %2, i64 noundef 0) #12
  store i64 %29, ptr %30, align 8, !tbaa !8
  %31 = getelementptr inbounds nuw %"struct.std::array", ptr %2, i32 0, i32 0
  %32 = load { i64, i64 }, ptr %31, align 8
  ret { i64, i64 } %32
}

; Function Attrs: mustprogress nounwind uwtable
define linkonce_odr noundef nonnull align 8 dereferenceable(8) ptr @_ZNSt14__array_traitsImLm2EE6_S_refERA2_Kmm(ptr noundef nonnull align 8 dereferenceable(16) %0, i64 noundef %1) #0 comdat align 2 {
  %3 = alloca ptr, align 8
  %4 = alloca i64, align 8
  store ptr %0, ptr %3, align 8, !tbaa !239
  store i64 %1, ptr %4, align 8, !tbaa !8
  %5 = load ptr, ptr %3, align 8, !tbaa !239
  %6 = load i64, ptr %4, align 8, !tbaa !8
  %7 = getelementptr inbounds nuw [2 x i64], ptr %5, i64 0, i64 %6
  ret ptr %7
}

; Function Attrs: mustprogress nounwind uwtable
define linkonce_odr void @_ZN5arrow15BasicDecimal128C2Elm(ptr noundef nonnull align 8 dereferenceable(16) %0, i64 noundef %1, i64 noundef %2) unnamed_addr #0 comdat align 2 {
  %4 = alloca ptr, align 8
  %5 = alloca i64, align 8
  %6 = alloca i64, align 8
  %7 = alloca %"struct.std::array", align 8
  store ptr %0, ptr %4, align 8, !tbaa !154
  store i64 %1, ptr %5, align 8, !tbaa !8
  store i64 %2, ptr %6, align 8, !tbaa !8
  %8 = load ptr, ptr %4, align 8
  call void @llvm.lifetime.start.p0(i64 16, ptr %7) #12
  %9 = getelementptr inbounds nuw %"struct.std::array", ptr %7, i32 0, i32 0
  %10 = load i64, ptr %6, align 8, !tbaa !8
  store i64 %10, ptr %9, align 8, !tbaa !8
  %11 = getelementptr inbounds i64, ptr %9, i64 1
  %12 = load i64, ptr %5, align 8, !tbaa !8
  store i64 %12, ptr %11, align 8, !tbaa !8
  call void @_ZN5arrow15BasicDecimal128CI2NS_19GenericBasicDecimalIS0_Li128ELi2EEEERKSt5arrayImLm2EE(ptr noundef nonnull align 8 dereferenceable(16) %8, ptr noundef nonnull align 8 dereferenceable(16) %7) #12
  call void @llvm.lifetime.end.p0(i64 16, ptr %7) #12
  ret void
}

; Function Attrs: mustprogress nounwind uwtable
define linkonce_odr noundef i64 @_ZN5arrow8internal13SafeSignedAddIlEET_S2_S2_(i64 noundef %0, i64 noundef %1) #0 comdat {
  %3 = alloca i64, align 8
  %4 = alloca i64, align 8
  store i64 %0, ptr %3, align 8, !tbaa !8
  store i64 %1, ptr %4, align 8, !tbaa !8
  %5 = load i64, ptr %3, align 8, !tbaa !8
  %6 = load i64, ptr %4, align 8, !tbaa !8
  %7 = add i64 %5, %6
  ret i64 %7
}

; Function Attrs: mustprogress nounwind uwtable
define linkonce_odr void @_ZN5arrow19GenericBasicDecimalINS_15BasicDecimal128ELi128ELi2EEC2IiiEET_(ptr noundef nonnull align 8 dereferenceable(16) %0, i32 noundef %1) unnamed_addr #0 comdat align 2 personality ptr @__gxx_personality_v0 {
  %3 = alloca ptr, align 8
  %4 = alloca i32, align 4
  store ptr %0, ptr %3, align 8, !tbaa !3
  store i32 %1, ptr %4, align 4, !tbaa !30
  %5 = load ptr, ptr %3, align 8
  %6 = load i32, ptr %4, align 4, !tbaa !30
  %7 = invoke { i64, i64 } @_ZN5arrow19GenericBasicDecimalINS_15BasicDecimal128ELi128ELi2EE16WordsFromLowBitsIiEESt5arrayImLm2EET_(i32 noundef %6)
          to label %8 unwind label %14

8:                                                ; preds = %2
  %9 = getelementptr inbounds nuw %"struct.std::array", ptr %5, i32 0, i32 0
  %10 = getelementptr inbounds nuw { i64, i64 }, ptr %9, i32 0, i32 0
  %11 = extractvalue { i64, i64 } %7, 0
  store i64 %11, ptr %10, align 8
  %12 = getelementptr inbounds nuw { i64, i64 }, ptr %9, i32 0, i32 1
  %13 = extractvalue { i64, i64 } %7, 1
  store i64 %13, ptr %12, align 8
  ret void

14:                                               ; preds = %2
  %15 = landingpad { ptr, i32 }
          catch ptr null
  %16 = extractvalue { ptr, i32 } %15, 0
  call void @__clang_call_terminate(ptr %16) #13
  unreachable
}

; Function Attrs: mustprogress nounwind uwtable
define linkonce_odr noundef nonnull align 8 dereferenceable(8) ptr @_ZNKSt5arrayImLm2EEixEm(ptr noundef nonnull align 8 dereferenceable(16) %0, i64 noundef %1) #0 comdat align 2 {
  %3 = alloca ptr, align 8
  %4 = alloca i64, align 8
  store ptr %0, ptr %3, align 8, !tbaa !10
  store i64 %1, ptr %4, align 8, !tbaa !8
  %5 = load ptr, ptr %3, align 8
  %6 = getelementptr inbounds nuw %"struct.std::array", ptr %5, i32 0, i32 0
  %7 = load i64, ptr %4, align 8, !tbaa !8
  %8 = call noundef nonnull align 8 dereferenceable(8) ptr @_ZNSt14__array_traitsImLm2EE6_S_refERA2_Kmm(ptr noundef nonnull align 8 dereferenceable(16) %6, i64 noundef %7) #12
  ret ptr %8
}

; Function Attrs: mustprogress uwtable
define noundef nonnull align 8 dereferenceable(16) ptr @_ZN5arrow15BasicDecimal1286NegateEv(ptr noundef nonnull align 8 dereferenceable(16) %0) #6 align 2 {
  %2 = alloca ptr, align 8
  %3 = alloca i64, align 8
  %4 = alloca i64, align 8
  %5 = alloca %"class.arrow::BasicDecimal128", align 8
  store ptr %0, ptr %2, align 8, !tbaa !154
  %6 = load ptr, ptr %2, align 8
  call void @llvm.lifetime.start.p0(i64 8, ptr %3) #12
  %7 = call noundef i64 @_ZNK5arrow15BasicDecimal1288low_bitsEv(ptr noundef nonnull align 8 dereferenceable(16) %6)
  %8 = xor i64 %7, -1
  %9 = add i64 %8, 1
  store i64 %9, ptr %3, align 8, !tbaa !8
  call void @llvm.lifetime.start.p0(i64 8, ptr %4) #12
  %10 = call noundef i64 @_ZNK5arrow15BasicDecimal1289high_bitsEv(ptr noundef nonnull align 8 dereferenceable(16) %6)
  %11 = xor i64 %10, -1
  store i64 %11, ptr %4, align 8, !tbaa !8
  %12 = load i64, ptr %3, align 8, !tbaa !8
  %13 = icmp eq i64 %12, 0
  br i1 %13, label %14, label %17

14:                                               ; preds = %1
  %15 = load i64, ptr %4, align 8, !tbaa !8
  %16 = call noundef i64 @_ZN5arrow8internal13SafeSignedAddIlEET_S2_S2_(i64 noundef %15, i64 noundef 1)
  store i64 %16, ptr %4, align 8, !tbaa !8
  br label %17

17:                                               ; preds = %14, %1
  call void @llvm.lifetime.start.p0(i64 16, ptr %5) #12
  %18 = load i64, ptr %4, align 8, !tbaa !8
  %19 = load i64, ptr %3, align 8, !tbaa !8
  call void @_ZN5arrow15BasicDecimal128C2Elm(ptr noundef nonnull align 8 dereferenceable(16) %5, i64 noundef %18, i64 noundef %19) #12
  call void @llvm.memcpy.p0.p0.i64(ptr align 8 %6, ptr align 8 %5, i64 16, i1 false)
  call void @llvm.lifetime.end.p0(i64 16, ptr %5) #12
  call void @llvm.lifetime.end.p0(i64 8, ptr %4) #12
  call void @llvm.lifetime.end.p0(i64 8, ptr %3) #12
  ret ptr %6
}

; Function Attrs: inlinehint mustprogress nounwind uwtable
define linkonce_odr void @_ZN5arrow15BasicDecimal128CI2NS_19GenericBasicDecimalIS0_Li128ELi2EEEIiiEET_(ptr noundef nonnull align 8 dereferenceable(16) %0, i32 noundef %1) unnamed_addr #3 comdat align 2 {
  %3 = alloca ptr, align 8
  %4 = alloca i32, align 4
  store ptr %0, ptr %3, align 8, !tbaa !154
  store i32 %1, ptr %4, align 4, !tbaa !30
  %5 = load ptr, ptr %3, align 8
  %6 = load i32, ptr %4, align 4, !tbaa !30
  call void @_ZN5arrow19GenericBasicDecimalINS_15BasicDecimal128ELi128ELi2EEC2IiiEET_(ptr noundef nonnull align 8 dereferenceable(16) %5, i32 noundef %6) #12
  ret void
}

; Function Attrs: mustprogress nounwind uwtable
define linkonce_odr noundef i64 @_ZNK5arrow15BasicDecimal1288low_bitsEv(ptr noundef nonnull align 8 dereferenceable(16) %0) #0 comdat align 2 {
  %2 = alloca ptr, align 8
  store ptr %0, ptr %2, align 8, !tbaa !154
  %3 = load ptr, ptr %2, align 8
  %4 = getelementptr inbounds nuw %"class.arrow::GenericBasicDecimal", ptr %3, i32 0, i32 0
  %5 = call noundef nonnull align 8 dereferenceable(8) ptr @_ZNKSt5arrayImLm2EEixEm(ptr noundef nonnull align 8 dereferenceable(16) %4, i64 noundef 0) #12
  %6 = load i64, ptr %5, align 8, !tbaa !8
  ret i64 %6
}

; Function Attrs: mustprogress nounwind uwtable
define linkonce_odr noundef i64 @_ZNK5arrow15BasicDecimal1289high_bitsEv(ptr noundef nonnull align 8 dereferenceable(16) %0) #0 comdat align 2 {
  %2 = alloca ptr, align 8
  store ptr %0, ptr %2, align 8, !tbaa !154
  %3 = load ptr, ptr %2, align 8
  %4 = getelementptr inbounds nuw %"class.arrow::GenericBasicDecimal", ptr %3, i32 0, i32 0
  %5 = call noundef nonnull align 8 dereferenceable(8) ptr @_ZNKSt5arrayImLm2EEixEm(ptr noundef nonnull align 8 dereferenceable(16) %4, i64 noundef 1) #12
  %6 = load i64, ptr %5, align 8, !tbaa !8
  ret i64 %6
}

; Function Attrs: mustprogress uwtable
define noundef nonnull align 8 dereferenceable(16) ptr @_ZN5arrow15BasicDecimal1283AbsEv(ptr noundef nonnull align 8 dereferenceable(16) %0) #6 align 2 {
  %2 = alloca ptr, align 8
  %3 = alloca %"class.arrow::BasicDecimal128", align 8
  store ptr %0, ptr %2, align 8, !tbaa !154
  %4 = load ptr, ptr %2, align 8
  call void @llvm.lifetime.start.p0(i64 16, ptr %3) #12
  call void @_ZN5arrow15BasicDecimal128CI2NS_19GenericBasicDecimalIS0_Li128ELi2EEEIiiEET_(ptr noundef nonnull align 8 dereferenceable(16) %3, i32 noundef 0) #12
  %5 = call noundef zeroext i1 @_ZN5arrowltERKNS_15BasicDecimal128ES2_(ptr noundef nonnull align 8 dereferenceable(16) %4, ptr noundef nonnull align 8 dereferenceable(16) %3)
  br i1 %5, label %6, label %8

6:                                                ; preds = %1
  %7 = call noundef nonnull align 8 dereferenceable(16) ptr @_ZN5arrow15BasicDecimal1286NegateEv(ptr noundef nonnull align 8 dereferenceable(16) %4)
  br label %9

8:                                                ; preds = %1
  br label %9

9:                                                ; preds = %8, %6
  %10 = phi ptr [ %7, %6 ], [ %4, %8 ]
  call void @llvm.lifetime.end.p0(i64 16, ptr %3) #12
  ret ptr %10
}

; Function Attrs: mustprogress uwtable
define noundef zeroext i1 @_ZN5arrowltERKNS_15BasicDecimal128ES2_(ptr noundef nonnull align 8 dereferenceable(16) %0, ptr noundef nonnull align 8 dereferenceable(16) %1) #6 {
  %3 = alloca ptr, align 8
  %4 = alloca ptr, align 8
  store ptr %0, ptr %3, align 8, !tbaa !154
  store ptr %1, ptr %4, align 8, !tbaa !154
  %5 = load ptr, ptr %3, align 8, !tbaa !154
  %6 = call noundef i64 @_ZNK5arrow15BasicDecimal1289high_bitsEv(ptr noundef nonnull align 8 dereferenceable(16) %5)
  %7 = load ptr, ptr %4, align 8, !tbaa !154
  %8 = call noundef i64 @_ZNK5arrow15BasicDecimal1289high_bitsEv(ptr noundef nonnull align 8 dereferenceable(16) %7)
  %9 = icmp slt i64 %6, %8
  br i1 %9, label %24, label %10

10:                                               ; preds = %2
  %11 = load ptr, ptr %3, align 8, !tbaa !154
  %12 = call noundef i64 @_ZNK5arrow15BasicDecimal1289high_bitsEv(ptr noundef nonnull align 8 dereferenceable(16) %11)
  %13 = load ptr, ptr %4, align 8, !tbaa !154
  %14 = call noundef i64 @_ZNK5arrow15BasicDecimal1289high_bitsEv(ptr noundef nonnull align 8 dereferenceable(16) %13)
  %15 = icmp eq i64 %12, %14
  br i1 %15, label %16, label %22

16:                                               ; preds = %10
  %17 = load ptr, ptr %3, align 8, !tbaa !154
  %18 = call noundef i64 @_ZNK5arrow15BasicDecimal1288low_bitsEv(ptr noundef nonnull align 8 dereferenceable(16) %17)
  %19 = load ptr, ptr %4, align 8, !tbaa !154
  %20 = call noundef i64 @_ZNK5arrow15BasicDecimal1288low_bitsEv(ptr noundef nonnull align 8 dereferenceable(16) %19)
  %21 = icmp ult i64 %18, %20
  br label %22

22:                                               ; preds = %16, %10
  %23 = phi i1 [ false, %10 ], [ %21, %16 ]
  br label %24

24:                                               ; preds = %22, %2
  %25 = phi i1 [ true, %2 ], [ %23, %22 ]
  ret i1 %25
}

; Function Attrs: mustprogress uwtable
define { i64, i64 } @_ZN5arrow15BasicDecimal1283AbsERKS0_(ptr noundef nonnull align 8 dereferenceable(16) %0) #6 align 2 {
  %2 = alloca %"class.arrow::BasicDecimal128", align 8
  %3 = alloca ptr, align 8
  %4 = alloca %"class.arrow::BasicDecimal128", align 8
  store ptr %0, ptr %3, align 8, !tbaa !154
  call void @llvm.lifetime.start.p0(i64 16, ptr %4) #12
  %5 = load ptr, ptr %3, align 8, !tbaa !154
  call void @llvm.memcpy.p0.p0.i64(ptr align 8 %4, ptr align 8 %5, i64 16, i1 false)
  %6 = call noundef nonnull align 8 dereferenceable(16) ptr @_ZN5arrow15BasicDecimal1283AbsEv(ptr noundef nonnull align 8 dereferenceable(16) %4)
  call void @llvm.memcpy.p0.p0.i64(ptr align 8 %2, ptr align 8 %6, i64 16, i1 false)
  call void @llvm.lifetime.end.p0(i64 16, ptr %4) #12
  %7 = getelementptr inbounds nuw %"class.arrow::BasicDecimal128", ptr %2, i32 0, i32 0
  %8 = getelementptr inbounds nuw %"class.arrow::GenericBasicDecimal", ptr %7, i32 0, i32 0
  %9 = getelementptr inbounds nuw %"struct.std::array", ptr %8, i32 0, i32 0
  %10 = load { i64, i64 }, ptr %9, align 8
  ret { i64, i64 } %10
}

; Function Attrs: mustprogress uwtable
define noundef zeroext i1 @_ZNK5arrow15BasicDecimal12815FitsInPrecisionEi(ptr noundef nonnull align 8 dereferenceable(16) %0, i32 noundef %1) #6 align 2 {
  %3 = alloca ptr, align 8
  %4 = alloca i32, align 4
  %5 = alloca %"class.arrow::BasicDecimal128", align 8
  store ptr %0, ptr %3, align 8, !tbaa !154
  store i32 %1, ptr %4, align 4, !tbaa !30
  %6 = load ptr, ptr %3, align 8
  br label %7

7:                                                ; preds = %8, %2
  br i1 false, label %8, label %9

8:                                                ; preds = %7
  br label %7, !llvm.loop !156

9:                                                ; preds = %7
  br label %10

10:                                               ; preds = %11, %9
  br i1 false, label %11, label %12

11:                                               ; preds = %10
  br label %10, !llvm.loop !157

12:                                               ; preds = %10
  br label %13

13:                                               ; preds = %14, %12
  br i1 false, label %14, label %15

14:                                               ; preds = %13
  br label %13, !llvm.loop !158

15:                                               ; preds = %13
  br label %16

16:                                               ; preds = %17, %15
  br i1 false, label %17, label %18

17:                                               ; preds = %16
  br label %16, !llvm.loop !159

18:                                               ; preds = %16
  br label %19

19:                                               ; preds = %20, %18
  br i1 false, label %20, label %21

20:                                               ; preds = %19
  br label %19, !llvm.loop !160

21:                                               ; preds = %19
  br label %22

22:                                               ; preds = %23, %21
  br i1 false, label %23, label %24

23:                                               ; preds = %22
  br label %22, !llvm.loop !161

24:                                               ; preds = %22
  call void @llvm.lifetime.start.p0(i64 16, ptr %5) #12
  %25 = call { i64, i64 } @_ZN5arrow15BasicDecimal1283AbsERKS0_(ptr noundef nonnull align 8 dereferenceable(16) %6)
  %26 = getelementptr inbounds nuw %"class.arrow::BasicDecimal128", ptr %5, i32 0, i32 0
  %27 = getelementptr inbounds nuw %"class.arrow::GenericBasicDecimal", ptr %26, i32 0, i32 0
  %28 = getelementptr inbounds nuw %"struct.std::array", ptr %27, i32 0, i32 0
  %29 = getelementptr inbounds nuw { i64, i64 }, ptr %28, i32 0, i32 0
  %30 = extractvalue { i64, i64 } %25, 0
  store i64 %30, ptr %29, align 8
  %31 = getelementptr inbounds nuw { i64, i64 }, ptr %28, i32 0, i32 1
  %32 = extractvalue { i64, i64 } %25, 1
  store i64 %32, ptr %31, align 8
  %33 = load i32, ptr %4, align 4, !tbaa !30
  %34 = sext i32 %33 to i64
  %35 = getelementptr inbounds [39 x %"class.arrow::BasicDecimal128"], ptr @_ZN5arrowL22kDecimal128PowersOfTenE, i64 0, i64 %34
  %36 = call noundef zeroext i1 @_ZN5arrowltERKNS_15BasicDecimal128ES2_(ptr noundef nonnull align 8 dereferenceable(16) %5, ptr noundef nonnull align 8 dereferenceable(16) %35)
  call void @llvm.lifetime.end.p0(i64 16, ptr %5) #12
  ret i1 %36
}