; Function Attrs: mustprogress nofree norecurse nosync nounwind willreturn memory(argmem: read) uwtable
define noundef zeroext i1 @_ZNK5arrow15BasicDecimal12815FitsInPrecisionEi(ptr noundef nonnull readonly align 8 captures(none) dereferenceable(16) %0, i32 noundef %1) local_unnamed_addr #7 align 2 personality ptr @__gxx_personality_v0 {
  %.sroa.0.0.copyload1.i = load i64, ptr %0, align 8
  %.sroa.6.0..sroa_idx.i = getelementptr inbounds nuw i8, ptr %0, i64 8
  %.sroa.6.0.copyload.i = load i64, ptr %.sroa.6.0..sroa_idx.i, align 8
  %3 = icmp slt i64 %.sroa.6.0.copyload.i, 0
  br i1 %3, label %_ZN5arrowltERKNS_15BasicDecimal128ES2_.exit.i.i, label %_ZN5arrow15BasicDecimal1283AbsERKS0_.exit

_ZN5arrowltERKNS_15BasicDecimal128ES2_.exit.i.i:  ; preds = %2
  %4 = xor i64 %.sroa.6.0.copyload.i, -1
  %5 = icmp eq i64 %.sroa.0.0.copyload1.i, 0
  %6 = sub i64 0, %.sroa.6.0.copyload.i
  %7 = sub i64 0, %.sroa.0.0.copyload1.i
  %.sroa.6.0.i.i.i = select i1 %5, i64 %6, i64 %4
  br label %_ZN5arrow15BasicDecimal1283AbsERKS0_.exit

_ZN5arrow15BasicDecimal1283AbsERKS0_.exit:        ; preds = %2, %_ZN5arrowltERKNS_15BasicDecimal128ES2_.exit.i.i
  %.sroa.6.0.i = phi i64 [ %.sroa.6.0.i.i.i, %_ZN5arrowltERKNS_15BasicDecimal128ES2_.exit.i.i ], [ %.sroa.6.0.copyload.i, %2 ]
  %.sroa.0.0.i = phi i64 [ %7, %_ZN5arrowltERKNS_15BasicDecimal128ES2_.exit.i.i ], [ %.sroa.0.0.copyload1.i, %2 ]
  %8 = sext i32 %1 to i64
  %9 = getelementptr inbounds [39 x %"class.arrow::BasicDecimal128"], ptr @_ZN5arrowL22kDecimal128PowersOfTenE, i64 0, i64 %8
  %10 = getelementptr inbounds nuw i8, ptr %9, i64 8
  %11 = load i64, ptr %10, align 8, !tbaa !7
  %12 = icmp slt i64 %.sroa.6.0.i, %11
  br i1 %12, label %_ZN5arrowltERKNS_15BasicDecimal128ES2_.exit, label %13

13:                                               ; preds = %_ZN5arrow15BasicDecimal1283AbsERKS0_.exit
  %14 = icmp eq i64 %.sroa.6.0.i, %11
  br i1 %14, label %15, label %_ZN5arrowltERKNS_15BasicDecimal128ES2_.exit

15:                                               ; preds = %13
  %16 = load i64, ptr %9, align 16, !tbaa !7
  %17 = icmp ult i64 %.sroa.0.0.i, %16
  br label %_ZN5arrowltERKNS_15BasicDecimal128ES2_.exit

_ZN5arrowltERKNS_15BasicDecimal128ES2_.exit:      ; preds = %_ZN5arrow15BasicDecimal1283AbsERKS0_.exit, %13, %15
  %18 = phi i1 [ true, %_ZN5arrow15BasicDecimal1283AbsERKS0_.exit ], [ false, %13 ], [ %17, %15 ]
  ret i1 %18
}